ccopy_reg
_reconstructor
p1
(cargparse
Namespace
p2
c__builtin__
object
p3
NtRp4
(dp5
S'grad_clip'
p6
F5
sS'vocab_size'
p7
I97
sS'rnn_size'
p8
I128
sS'data_dir'
p9
S'data/sherlock'
p10
sS'learning_rate'
p11
F0.002
sS'num_epochs'
p12
I50
sS'batch_size'
p13
I50
sS'decay_rate'
p14
F0.96999999999999997
sS'seq_length'
p15
I50
sS'num_layers'
p16
I2
sS'model'
p17
S'lstm'
p18
sb.